target datalayout = "e-m:e-p270:32:32-p271:32:32-p272:64:64-i64:64-i128:128-f80:128-n8:16:32:64-S128"
target triple = "x86_64-pc-linux-gnu"

%"struct.Luau::NotNull.1" = type { ptr }
%"struct.Luau::NotNull.2" = type { ptr }
%"struct.Luau::NotNull.3" = type { ptr }
%"struct.Luau::TypeCheckLimits" = type { %"class.std::optional", %"class.std::optional.5", %"class.std::optional.5", %"class.std::shared_ptr" }
%"class.std::optional" = type { %"struct.std::_Optional_base" }
%"struct.std::_Optional_base" = type { %"struct.std::_Optional_payload" }
%"struct.std::_Optional_payload" = type { %"struct.std::_Optional_payload_base.base", [7 x i8] }
%"struct.std::_Optional_payload_base.base" = type <{ %"union.std::_Optional_payload_base<double>::_Storage", i8 }>
%"union.std::_Optional_payload_base<double>::_Storage" = type { double }
%"class.std::optional.5" = type { %"struct.std::_Optional_base.6" }
%"struct.std::_Optional_base.6" = type { %"struct.std::_Optional_payload.8" }
%"struct.std::_Optional_payload.8" = type { %"struct.std::_Optional_payload_base.base.10", [3 x i8] }
%"struct.std::_Optional_payload_base.base.10" = type <{ %"union.std::_Optional_payload_base<int>::_Storage", i8 }>
%"union.std::_Optional_payload_base<int>::_Storage" = type { i32 }
%"class.std::shared_ptr" = type { %"class.std::__shared_ptr" }
%"class.std::__shared_ptr" = type { ptr, %"class.std::__shared_count" }
%"class.std::__shared_count" = type { ptr }
%"class.Luau::Variant.197" = type { i32, [4 x i8], [104 x i8] }
%"struct.Luau::ConstraintSolver" = type { %"struct.Luau::NotNull.1", %"struct.Luau::NotNull.2", %"struct.Luau::InternalErrorReporter", %"struct.Luau::NotNull.34", %"struct.Luau::NotNull.35", %"struct.Luau::NotNull.36", %"class.std::vector.37", %"struct.Luau::NotNull.3", %"class.std::__cxx11::basic_string", %"struct.Luau::NotNull.42", %"class.std::vector.43", %"class.std::vector.48", %"class.std::unordered_map", %"class.std::unordered_map.58", %"class.Luau::DenseHashMap.76", %"class.Luau::DenseHashMap.99", %"class.Luau::DenseHashMap.102", %"class.std::unordered_map.105", %"class.Luau::DenseHashSet.119", %"class.Luau::DenseHashSet.122", %"struct.Luau::NotNull.125", %"class.std::vector.126", %"struct.Luau::NotNull.131", %"class.std::vector.132", ptr, %"struct.Luau::TypeCheckLimits", %"class.Luau::DenseHashMap.137", %"struct.Luau::ToStringOptions" }
%"struct.Luau::InternalErrorReporter" = type { %"class.std::function", %"class.std::__cxx11::basic_string" }
%"class.std::function" = type { %"class.std::_Function_base", ptr }
%"class.std::_Function_base" = type { %"union.std::_Any_data", ptr }
%"union.std::_Any_data" = type { %"union.std::_Nocopy_types" }
%"union.std::_Nocopy_types" = type { { i64, i64 } }
%"struct.Luau::NotNull.34" = type { ptr }
%"struct.Luau::NotNull.35" = type { ptr }
%"struct.Luau::NotNull.36" = type { ptr }
%"class.std::vector.37" = type { %"struct.std::_Vector_base.38" }
%"struct.std::_Vector_base.38" = type { %"struct.std::_Vector_base<Luau::NotNull<Luau::Constraint>, std::allocator<Luau::NotNull<Luau::Constraint>>>::_Vector_impl" }
%"struct.std::_Vector_base<Luau::NotNull<Luau::Constraint>, std::allocator<Luau::NotNull<Luau::Constraint>>>::_Vector_impl" = type { %"struct.std::_Vector_base<Luau::NotNull<Luau::Constraint>, std::allocator<Luau::NotNull<Luau::Constraint>>>::_Vector_impl_data" }
%"struct.std::_Vector_base<Luau::NotNull<Luau::Constraint>, std::allocator<Luau::NotNull<Luau::Constraint>>>::_Vector_impl_data" = type { ptr, ptr, ptr }
%"class.std::__cxx11::basic_string" = type { %"struct.std::__cxx11::basic_string<char>::_Alloc_hider", i64, %union.anon }
%"struct.std::__cxx11::basic_string<char>::_Alloc_hider" = type { ptr }
%union.anon = type { i64, [8 x i8] }
%"struct.Luau::NotNull.42" = type { ptr }
%"class.std::vector.43" = type { %"struct.std::_Vector_base.44" }
%"struct.std::_Vector_base.44" = type { %"struct.std::_Vector_base<std::unique_ptr<Luau::Constraint>, std::allocator<std::unique_ptr<Luau::Constraint>>>::_Vector_impl" }
%"struct.std::_Vector_base<std::unique_ptr<Luau::Constraint>, std::allocator<std::unique_ptr<Luau::Constraint>>>::_Vector_impl" = type { %"struct.std::_Vector_base<std::unique_ptr<Luau::Constraint>, std::allocator<std::unique_ptr<Luau::Constraint>>>::_Vector_impl_data" }
%"struct.std::_Vector_base<std::unique_ptr<Luau::Constraint>, std::allocator<std::unique_ptr<Luau::Constraint>>>::_Vector_impl_data" = type { ptr, ptr, ptr }
%"class.std::vector.48" = type { %"struct.std::_Vector_base.49" }
%"struct.std::_Vector_base.49" = type { %"struct.std::_Vector_base<Luau::NotNull<const Luau::Constraint>, std::allocator<Luau::NotNull<const Luau::Constraint>>>::_Vector_impl" }
%"struct.std::_Vector_base<Luau::NotNull<const Luau::Constraint>, std::allocator<Luau::NotNull<const Luau::Constraint>>>::_Vector_impl" = type { %"struct.std::_Vector_base<Luau::NotNull<const Luau::Constraint>, std::allocator<Luau::NotNull<const Luau::Constraint>>>::_Vector_impl_data" }
%"struct.std::_Vector_base<Luau::NotNull<const Luau::Constraint>, std::allocator<Luau::NotNull<const Luau::Constraint>>>::_Vector_impl_data" = type { ptr, ptr, ptr }
%"class.std::unordered_map" = type { %"class.std::_Hashtable" }
%"class.std::_Hashtable" = type { ptr, i64, %"struct.std::__detail::_Hash_node_base", i64, %"struct.std::__detail::_Prime_rehash_policy", ptr }
%"struct.std::__detail::_Hash_node_base" = type { ptr }
%"struct.std::__detail::_Prime_rehash_policy" = type { float, i64 }
%"class.std::unordered_map.58" = type { %"class.std::_Hashtable.59" }
%"class.std::_Hashtable.59" = type { ptr, i64, %"struct.std::__detail::_Hash_node_base", i64, %"struct.std::__detail::_Prime_rehash_policy", ptr }
%"class.Luau::DenseHashMap.76" = type { %"class.Luau::detail::DenseHashTable.77" }
%"class.Luau::detail::DenseHashTable.77" = type <{ ptr, i64, i64, %"struct.Luau::InstantiationSignature", [8 x i8] }>
%"struct.Luau::InstantiationSignature" = type { %"struct.Luau::TypeFun", %"class.std::vector.88", %"class.std::vector.93" }
%"struct.Luau::TypeFun" = type { %"class.std::vector.78", %"class.std::vector.83", ptr }
%"class.std::vector.78" = type { %"struct.std::_Vector_base.79" }
%"struct.std::_Vector_base.79" = type { %"struct.std::_Vector_base<Luau::GenericTypeDefinition, std::allocator<Luau::GenericTypeDefinition>>::_Vector_impl" }
%"struct.std::_Vector_base<Luau::GenericTypeDefinition, std::allocator<Luau::GenericTypeDefinition>>::_Vector_impl" = type { %"struct.std::_Vector_base<Luau::GenericTypeDefinition, std::allocator<Luau::GenericTypeDefinition>>::_Vector_impl_data" }
%"struct.std::_Vector_base<Luau::GenericTypeDefinition, std::allocator<Luau::GenericTypeDefinition>>::_Vector_impl_data" = type { ptr, ptr, ptr }
%"class.std::vector.83" = type { %"struct.std::_Vector_base.84" }
%"struct.std::_Vector_base.84" = type { %"struct.std::_Vector_base<Luau::GenericTypePackDefinition, std::allocator<Luau::GenericTypePackDefinition>>::_Vector_impl" }
%"struct.std::_Vector_base<Luau::GenericTypePackDefinition, std::allocator<Luau::GenericTypePackDefinition>>::_Vector_impl" = type { %"struct.std::_Vector_base<Luau::GenericTypePackDefinition, std::allocator<Luau::GenericTypePackDefinition>>::_Vector_impl_data" }
%"struct.std::_Vector_base<Luau::GenericTypePackDefinition, std::allocator<Luau::GenericTypePackDefinition>>::_Vector_impl_data" = type { ptr, ptr, ptr }
%"class.std::vector.88" = type { %"struct.std::_Vector_base.89" }
%"struct.std::_Vector_base.89" = type { %"struct.std::_Vector_base<const Luau::Type *, std::allocator<const Luau::Type *>>::_Vector_impl" }
%"struct.std::_Vector_base<const Luau::Type *, std::allocator<const Luau::Type *>>::_Vector_impl" = type { %"struct.std::_Vector_base<const Luau::Type *, std::allocator<const Luau::Type *>>::_Vector_impl_data" }
%"struct.std::_Vector_base<const Luau::Type *, std::allocator<const Luau::Type *>>::_Vector_impl_data" = type { ptr, ptr, ptr }
%"class.std::vector.93" = type { %"struct.std::_Vector_base.94" }
%"struct.std::_Vector_base.94" = type { %"struct.std::_Vector_base<const Luau::TypePackVar *, std::allocator<const Luau::TypePackVar *>>::_Vector_impl" }
%"struct.std::_Vector_base<const Luau::TypePackVar *, std::allocator<const Luau::TypePackVar *>>::_Vector_impl" = type { %"struct.std::_Vector_base<const Luau::TypePackVar *, std::allocator<const Luau::TypePackVar *>>::_Vector_impl_data" }
%"struct.std::_Vector_base<const Luau::TypePackVar *, std::allocator<const Luau::TypePackVar *>>::_Vector_impl_data" = type { ptr, ptr, ptr }
%"class.Luau::DenseHashMap.99" = type { %"class.Luau::detail::DenseHashTable.100" }
%"class.Luau::detail::DenseHashTable.100" = type <{ ptr, i64, i64, ptr, [8 x i8] }>
%"class.Luau::DenseHashMap.102" = type { %"class.Luau::detail::DenseHashTable.103" }
%"class.Luau::detail::DenseHashTable.103" = type <{ ptr, i64, i64, ptr, [8 x i8] }>
%"class.std::unordered_map.105" = type { %"class.std::_Hashtable.106" }
%"class.std::_Hashtable.106" = type { ptr, i64, %"struct.std::__detail::_Hash_node_base", i64, %"struct.std::__detail::_Prime_rehash_policy", ptr }
%"class.Luau::DenseHashSet.119" = type { %"class.Luau::detail::DenseHashTable.120" }
%"class.Luau::detail::DenseHashTable.120" = type <{ ptr, i64, i64, ptr, [8 x i8] }>
%"class.Luau::DenseHashSet.122" = type { %"class.Luau::detail::DenseHashTable.123" }
%"class.Luau::detail::DenseHashTable.123" = type <{ ptr, i64, i64, ptr, [8 x i8] }>
%"struct.Luau::NotNull.125" = type { ptr }
%"class.std::vector.126" = type { %"struct.std::_Vector_base.127" }
%"struct.std::_Vector_base.127" = type { %"struct.std::_Vector_base<Luau::TypeError, std::allocator<Luau::TypeError>>::_Vector_impl" }
%"struct.std::_Vector_base<Luau::TypeError, std::allocator<Luau::TypeError>>::_Vector_impl" = type { %"struct.std::_Vector_base<Luau::TypeError, std::allocator<Luau::TypeError>>::_Vector_impl_data" }
%"struct.std::_Vector_base<Luau::TypeError, std::allocator<Luau::TypeError>>::_Vector_impl_data" = type { ptr, ptr, ptr }
%"struct.Luau::NotNull.131" = type { ptr }
%"class.std::vector.132" = type { %"struct.std::_Vector_base.133" }
%"struct.std::_Vector_base.133" = type { %"struct.std::_Vector_base<Luau::RequireCycle, std::allocator<Luau::RequireCycle>>::_Vector_impl" }
%"struct.std::_Vector_base<Luau::RequireCycle, std::allocator<Luau::RequireCycle>>::_Vector_impl" = type { %"struct.std::_Vector_base<Luau::RequireCycle, std::allocator<Luau::RequireCycle>>::_Vector_impl_data" }
%"struct.std::_Vector_base<Luau::RequireCycle, std::allocator<Luau::RequireCycle>>::_Vector_impl_data" = type { ptr, ptr, ptr }
%"class.Luau::DenseHashMap.137" = type { %"class.Luau::detail::DenseHashTable.138" }
%"class.Luau::detail::DenseHashTable.138" = type <{ ptr, i64, i64, ptr, [8 x i8] }>
%"struct.Luau::ToStringOptions" = type { i8, i8, i8, i8, i8, i8, i8, i64, i64, i64, %"struct.Luau::ToStringNameMap", %"class.std::shared_ptr.179", %"class.std::vector.182" }
%"struct.Luau::ToStringNameMap" = type { %"class.std::unordered_map.140", %"class.std::unordered_map.159" }
%"class.std::unordered_map.140" = type { %"class.std::_Hashtable.141" }
%"class.std::_Hashtable.141" = type { ptr, i64, %"struct.std::__detail::_Hash_node_base", i64, %"struct.std::__detail::_Prime_rehash_policy", ptr }
%"class.std::unordered_map.159" = type { %"class.std::_Hashtable.160" }
%"class.std::_Hashtable.160" = type { ptr, i64, %"struct.std::__detail::_Hash_node_base", i64, %"struct.std::__detail::_Prime_rehash_policy", ptr }
%"class.std::shared_ptr.179" = type { %"class.std::__shared_ptr.180" }
%"class.std::__shared_ptr.180" = type { ptr, %"class.std::__shared_count" }
%"class.std::vector.182" = type { %"struct.std::_Vector_base.183" }
%"struct.std::_Vector_base.183" = type { %"struct.std::_Vector_base<std::__cxx11::basic_string<char>, std::allocator<std::__cxx11::basic_string<char>>>::_Vector_impl" }
%"struct.std::_Vector_base<std::__cxx11::basic_string<char>, std::allocator<std::__cxx11::basic_string<char>>>::_Vector_impl" = type { %"struct.std::_Vector_base<std::__cxx11::basic_string<char>, std::allocator<std::__cxx11::basic_string<char>>>::_Vector_impl_data" }
%"struct.std::_Vector_base<std::__cxx11::basic_string<char>, std::allocator<std::__cxx11::basic_string<char>>>::_Vector_impl_data" = type { ptr, ptr, ptr }
%"struct.Luau::Location" = type { %"struct.Luau::Position", %"struct.Luau::Position" }
%"struct.Luau::Position" = type { i32, i32 }
%"struct.Luau::TypeError" = type { %"struct.Luau::Location", %"class.std::__cxx11::basic_string", %"class.Luau::Variant.197" }
%"class.__gnu_cxx::__normal_iterator.770" = type { ptr }

; Function Attrs: mustprogress nounwind uwtable
define linkonce_odr dso_local void @_ZN9__gnu_cxx17__normal_iteratorIPN4Luau9TypeErrorESt6vectorIS2_SaIS2_EEEC2ERKS3_(ptr noundef nonnull align 8 dereferenceable(8) %0, ptr noundef nonnull align 8 dereferenceable(8) %1) unnamed_addr #2 comdat align 2 {
  %3 = alloca ptr, align 8
  %4 = alloca ptr, align 8
  store ptr %0, ptr %3, align 8, !tbaa !1117
  store ptr %1, ptr %4, align 8, !tbaa !3135
  %5 = load ptr, ptr %3, align 8
  %6 = getelementptr inbounds nuw %"class.__gnu_cxx::__normal_iterator.770", ptr %5, i32 0, i32 0
  %7 = load ptr, ptr %4, align 8, !tbaa !3135
  %8 = load ptr, ptr %7, align 8, !tbaa !815
  store ptr %8, ptr %6, align 8, !tbaa !1119
  ret void
}

; Function Attrs: mustprogress uwtable
define available_externally noundef nonnull align 8 dereferenceable(32) ptr @_ZNSt7__cxx1112basic_stringIcSt11char_traitsIcESaIcEE6assignERKS4_(ptr noundef nonnull align 8 dereferenceable(32) %0, ptr noundef nonnull align 8 dereferenceable(32) %1) #6 align 2 {
  %3 = alloca ptr, align 8
  %4 = alloca ptr, align 8
  store ptr %0, ptr %3, align 8, !tbaa !222
  store ptr %1, ptr %4, align 8, !tbaa !222
  %5 = load ptr, ptr %3, align 8
  %6 = load ptr, ptr %4, align 8, !tbaa !222
  call void @_ZNSt7__cxx1112basic_stringIcSt11char_traitsIcESaIcEE9_M_assignERKS4_(ptr noundef nonnull align 8 dereferenceable(32) %5, ptr noundef nonnull align 8 dereferenceable(32) %6)
  ret ptr %5
}

; Function Attrs: mustprogress nounwind uwtable
define linkonce_odr dso_local noundef nonnull align 8 dereferenceable(160) ptr @_ZNK9__gnu_cxx17__normal_iteratorIPN4Luau9TypeErrorESt6vectorIS2_SaIS2_EEEdeEv(ptr noundef nonnull align 8 dereferenceable(8) %0) #2 comdat align 2 {
  %2 = alloca ptr, align 8
  store ptr %0, ptr %2, align 8, !tbaa !1117
  %3 = load ptr, ptr %2, align 8
  %4 = getelementptr inbounds nuw %"class.__gnu_cxx::__normal_iterator.770", ptr %3, i32 0, i32 0
  %5 = load ptr, ptr %4, align 8, !tbaa !1119
  ret ptr %5
}

; Function Attrs: mustprogress nounwind uwtable
define linkonce_odr dso_local ptr @_ZNK9__gnu_cxx17__normal_iteratorIPN4Luau9TypeErrorESt6vectorIS2_SaIS2_EEEmiEl(ptr noundef nonnull align 8 dereferenceable(8) %0, i64 noundef %1) #2 comdat align 2 {
  %3 = alloca %"class.__gnu_cxx::__normal_iterator.770", align 8
  %4 = alloca ptr, align 8
  %5 = alloca i64, align 8
  %6 = alloca ptr, align 8
  store ptr %0, ptr %4, align 8, !tbaa !1117
  store i64 %1, ptr %5, align 8, !tbaa !117
  %7 = load ptr, ptr %4, align 8
  call void @llvm.lifetime.start.p0(i64 8, ptr %6) #4
  %8 = getelementptr inbounds nuw %"class.__gnu_cxx::__normal_iterator.770", ptr %7, i32 0, i32 0
  %9 = load ptr, ptr %8, align 8, !tbaa !1119
  %10 = load i64, ptr %5, align 8, !tbaa !117
  %11 = sub i64 0, %10
  %12 = getelementptr inbounds %"struct.Luau::TypeError", ptr %9, i64 %11
  store ptr %12, ptr %6, align 8, !tbaa !815
  call void @_ZN9__gnu_cxx17__normal_iteratorIPN4Luau9TypeErrorESt6vectorIS2_SaIS2_EEEC2ERKS3_(ptr noundef nonnull align 8 dereferenceable(8) %3, ptr noundef nonnull align 8 dereferenceable(8) %6) #4
  call void @llvm.lifetime.end.p0(i64 8, ptr %6) #4
  %13 = getelementptr inbounds nuw %"class.__gnu_cxx::__normal_iterator.770", ptr %3, i32 0, i32 0
  %14 = load ptr, ptr %13, align 8
  ret ptr %14
}

; Function Attrs: mustprogress nounwind uwtable
define linkonce_odr dso_local ptr @_ZNSt6vectorIN4Luau9TypeErrorESaIS1_EE3endEv(ptr noundef nonnull align 8 dereferenceable(24) %0) #2 comdat align 2 {
  %2 = alloca %"class.__gnu_cxx::__normal_iterator.770", align 8
  %3 = alloca ptr, align 8
  store ptr %0, ptr %3, align 8, !tbaa !400
  %4 = load ptr, ptr %3, align 8
  %5 = getelementptr inbounds nuw %"struct.std::_Vector_base.127", ptr %4, i32 0, i32 0
  %6 = getelementptr inbounds nuw %"struct.std::_Vector_base<Luau::TypeError, std::allocator<Luau::TypeError>>::_Vector_impl_data", ptr %5, i32 0, i32 1
  call void @_ZN9__gnu_cxx17__normal_iteratorIPN4Luau9TypeErrorESt6vectorIS2_SaIS2_EEEC2ERKS3_(ptr noundef nonnull align 8 dereferenceable(8) %2, ptr noundef nonnull align 8 dereferenceable(8) %6) #4
  %7 = getelementptr inbounds nuw %"class.__gnu_cxx::__normal_iterator.770", ptr %2, i32 0, i32 0
  %8 = load ptr, ptr %7, align 8
  ret ptr %8
}

; Function Attrs: mustprogress uwtable
define available_externally noundef nonnull align 8 dereferenceable(32) ptr @_ZNSt7__cxx1112basic_stringIcSt11char_traitsIcESaIcEEaSERKS4_(ptr noundef nonnull align 8 dereferenceable(32) %0, ptr noundef nonnull align 8 dereferenceable(32) %1) #6 align 2 {
  %3 = alloca ptr, align 8
  %4 = alloca ptr, align 8
  store ptr %0, ptr %3, align 8, !tbaa !222
  store ptr %1, ptr %4, align 8, !tbaa !222
  %5 = load ptr, ptr %3, align 8
  %6 = load ptr, ptr %4, align 8, !tbaa !222
  %7 = call noundef nonnull align 8 dereferenceable(32) ptr @_ZNSt7__cxx1112basic_stringIcSt11char_traitsIcESaIcEE6assignERKS4_(ptr noundef nonnull align 8 dereferenceable(32) %5, ptr noundef nonnull align 8 dereferenceable(32) %6)
  ret ptr %7
}

; Function Attrs: mustprogress nounwind uwtable
define linkonce_odr dso_local noundef nonnull align 8 dereferenceable(160) ptr @_ZNSt6vectorIN4Luau9TypeErrorESaIS1_EE4backEv(ptr noundef nonnull align 8 dereferenceable(24) %0) #2 comdat align 2 {
  %2 = alloca ptr, align 8
  %3 = alloca %"class.__gnu_cxx::__normal_iterator.770", align 8
  %4 = alloca %"class.__gnu_cxx::__normal_iterator.770", align 8
  store ptr %0, ptr %2, align 8, !tbaa !400
  %5 = load ptr, ptr %2, align 8
  call void @llvm.lifetime.start.p0(i64 8, ptr %3) #4
  call void @llvm.lifetime.start.p0(i64 8, ptr %4) #4
  %6 = call ptr @_ZNSt6vectorIN4Luau9TypeErrorESaIS1_EE3endEv(ptr noundef nonnull align 8 dereferenceable(24) %5) #4
  %7 = getelementptr inbounds nuw %"class.__gnu_cxx::__normal_iterator.770", ptr %4, i32 0, i32 0
  store ptr %6, ptr %7, align 8
  %8 = call ptr @_ZNK9__gnu_cxx17__normal_iteratorIPN4Luau9TypeErrorESt6vectorIS2_SaIS2_EEEmiEl(ptr noundef nonnull align 8 dereferenceable(8) %4, i64 noundef 1) #4
  %9 = getelementptr inbounds nuw %"class.__gnu_cxx::__normal_iterator.770", ptr %3, i32 0, i32 0
  store ptr %8, ptr %9, align 8
  %10 = call noundef nonnull align 8 dereferenceable(160) ptr @_ZNK9__gnu_cxx17__normal_iteratorIPN4Luau9TypeErrorESt6vectorIS2_SaIS2_EEEdeEv(ptr noundef nonnull align 8 dereferenceable(8) %3) #4
  call void @llvm.lifetime.end.p0(i64 8, ptr %4) #4
  call void @llvm.lifetime.end.p0(i64 8, ptr %3) #4
  ret ptr %10
}

; Function Attrs: mustprogress uwtable
define dso_local void @_ZN4Luau16ConstraintSolver11reportErrorEONS_7VariantIJNS_12TypeMismatchENS_13UnknownSymbolENS_15UnknownPropertyENS_9NotATableENS_17CannotExtendTableENS_24OnlyTablesCanHaveMethodsENS_23DuplicateTypeDefinitionENS_13CountMismatchENS_23FunctionDoesNotTakeSelfENS_20FunctionRequiresSelfENS_17OccursCheckFailedENS_14UnknownRequireENS_30IncorrectGenericParameterCountENS_11SyntaxErrorENS_14CodeTooComplexENS_21UnificationTooComplexENS_27UnknownPropButFoundLikePropENS_12GenericErrorENS_13InternalErrorENS_32ConstraintSolvingIncompleteErrorENS_21CannotCallNonFunctionENS_16ExtraInformationENS_17DeprecatedApiUsedENS_25ModuleHasCyclicDependencyENS_14IllegalRequireENS_29FunctionExitsWithoutReturningENS_25DuplicateGenericParameterENS_19CannotAssignToNeverENS_26CannotInferBinaryOperationENS_17MissingPropertiesENS_27SwappedGenericTypeParameterENS_19OptionalValueAccessENS_20MissingUnionPropertyENS_17TypesAreUnrelatedENS_23NormalizationTooComplexENS_16TypePackMismatchENS_36DynamicPropertyLookupOnClassesUnsafeENS_23UninhabitedTypeFunctionENS_27UninhabitedTypePackFunctionENS_17WhereClauseNeededENS_21PackWhereClauseNeededENS_24CheckedFunctionCallErrorENS_32NonStrictFunctionDefinitionErrorENS_23PropertyAccessViolationENS_28CheckedFunctionIncorrectArgsENS_25UnexpectedTypeInSubtypingENS_29UnexpectedTypePackInSubtypingENS_37ExplicitFunctionAnnotationRecommendedENS_28UserDefinedTypeFunctionErrorEEEERKNS_8LocationE(ptr noundef nonnull align 8 dereferenceable(1032) %0, ptr noundef nonnull align 8 dereferenceable(112) %1, ptr noundef nonnull align 4 dereferenceable(16) %2) #6 align 2 {
  %4 = alloca ptr, align 8
  %5 = alloca ptr, align 8
  %6 = alloca ptr, align 8
  store ptr %0, ptr %4, align 8, !tbaa !42
  store ptr %1, ptr %5, align 8, !tbaa !120
  store ptr %2, ptr %6, align 8, !tbaa !85
  %7 = load ptr, ptr %4, align 8
  %8 = getelementptr inbounds nuw %"struct.Luau::ConstraintSolver", ptr %7, i32 0, i32 21
  %9 = load ptr, ptr %6, align 8, !tbaa !85
  %10 = load ptr, ptr %5, align 8, !tbaa !120
  %11 = call noundef nonnull align 8 dereferenceable(160) ptr @_ZNSt6vectorIN4Luau9TypeErrorESaIS1_EE12emplace_backIJRKNS0_8LocationENS0_7VariantIJNS0_12TypeMismatchENS0_13UnknownSymbolENS0_15UnknownPropertyENS0_9NotATableENS0_17CannotExtendTableENS0_24OnlyTablesCanHaveMethodsENS0_23DuplicateTypeDefinitionENS0_13CountMismatchENS0_23FunctionDoesNotTakeSelfENS0_20FunctionRequiresSelfENS0_17OccursCheckFailedENS0_14UnknownRequireENS0_30IncorrectGenericParameterCountENS0_11SyntaxErrorENS0_14CodeTooComplexENS0_21UnificationTooComplexENS0_27UnknownPropButFoundLikePropENS0_12GenericErrorENS0_13InternalErrorENS0_32ConstraintSolvingIncompleteErrorENS0_21CannotCallNonFunctionENS0_16ExtraInformationENS0_17DeprecatedApiUsedENS0_25ModuleHasCyclicDependencyENS0_14IllegalRequireENS0_29FunctionExitsWithoutReturningENS0_25DuplicateGenericParameterENS0_19CannotAssignToNeverENS0_26CannotInferBinaryOperationENS0_17MissingPropertiesENS0_27SwappedGenericTypeParameterENS0_19OptionalValueAccessENS0_20MissingUnionPropertyENS0_17TypesAreUnrelatedENS0_23NormalizationTooComplexENS0_16TypePackMismatchENS0_36DynamicPropertyLookupOnClassesUnsafeENS0_23UninhabitedTypeFunctionENS0_27UninhabitedTypePackFunctionENS0_17WhereClauseNeededENS0_21PackWhereClauseNeededENS0_24CheckedFunctionCallErrorENS0_32NonStrictFunctionDefinitionErrorENS0_23PropertyAccessViolationENS0_28CheckedFunctionIncorrectArgsENS0_25UnexpectedTypeInSubtypingENS0_29UnexpectedTypePackInSubtypingENS0_37ExplicitFunctionAnnotationRecommendedENS0_28UserDefinedTypeFunctionErrorEEEEEEERS1_DpOT_(ptr noundef nonnull align 8 dereferenceable(24) %8, ptr noundef nonnull align 4 dereferenceable(16) %9, ptr noundef nonnull align 8 dereferenceable(112) %10)
  %12 = getelementptr inbounds nuw %"struct.Luau::ConstraintSolver", ptr %7, i32 0, i32 8
  %13 = getelementptr inbounds nuw %"struct.Luau::ConstraintSolver", ptr %7, i32 0, i32 21
  %14 = call noundef nonnull align 8 dereferenceable(160) ptr @_ZNSt6vectorIN4Luau9TypeErrorESaIS1_EE4backEv(ptr noundef nonnull align 8 dereferenceable(24) %13) #4
  %15 = getelementptr inbounds nuw %"struct.Luau::TypeError", ptr %14, i32 0, i32 1
  %16 = call noundef nonnull align 8 dereferenceable(32) ptr @_ZNSt7__cxx1112basic_stringIcSt11char_traitsIcESaIcEEaSERKS4_(ptr noundef nonnull align 8 dereferenceable(32) %15, ptr noundef nonnull align 8 dereferenceable(32) %12)
  ret void
}